; Function Attrs: mustprogress uwtable
define void @_ZNK6icu_7713FormattedList8toStringER10UErrorCode(ptr dead_on_unwind noalias writable sret(%"class.icu_77::UnicodeString") align 8 %0, ptr noundef nonnull readonly align 8 captures(none) dereferenceable(20) %1, ptr noundef nonnull align 4 dereferenceable(4) %2) unnamed_addr #1 align 2 personality ptr @__gxx_personality_v0 {
  %4 = load i32, ptr %2, align 4, !tbaa !13
  %5 = icmp slt i32 %4, 1
  br i1 %5, label %10, label %6

6:                                                ; preds = %3
  store ptr getelementptr inbounds nuw inrange(-16, 88) (i8, ptr @_ZTVN6icu_7713UnicodeStringE, i64 16), ptr %0, align 8, !tbaa !15, !alias.scope !22
  %7 = getelementptr inbounds nuw i8, ptr %0, i64 8
  store i16 2, ptr %7, align 8, !tbaa !25, !alias.scope !22
  invoke void @_ZN6icu_7713UnicodeString10setToBogusEv(ptr noundef nonnull align 8 dereferenceable(64) %0)
          to label %_ZN6icu_7711ICU_Utility15makeBogusStringEv.exit unwind label %8

common.resume:                                    ; preds = %18, %8
  %common.resume.op = phi { ptr, i32 } [ %9, %8 ], [ %19, %18 ]
  tail call void @_ZN6icu_7713UnicodeStringD1Ev(ptr noundef nonnull align 8 dereferenceable(64) %0) #19
  resume { ptr, i32 } %common.resume.op

8:                                                ; preds = %6
  %9 = landingpad { ptr, i32 }
          cleanup
  br label %common.resume

10:                                               ; preds = %3
  %11 = getelementptr inbounds nuw i8, ptr %1, i64 8
  %12 = load ptr, ptr %11, align 8, !tbaa !17
  %13 = icmp eq ptr %12, null
  br i1 %13, label %14, label %20

14:                                               ; preds = %10
  %15 = getelementptr inbounds nuw i8, ptr %1, i64 16
  %16 = load i32, ptr %15, align 8, !tbaa !21
  store i32 %16, ptr %2, align 4, !tbaa !13
  store ptr getelementptr inbounds nuw inrange(-16, 88) (i8, ptr @_ZTVN6icu_7713UnicodeStringE, i64 16), ptr %0, align 8, !tbaa !15, !alias.scope !26
  %17 = getelementptr inbounds nuw i8, ptr %0, i64 8
  store i16 2, ptr %17, align 8, !tbaa !25, !alias.scope !26
  invoke void @_ZN6icu_7713UnicodeString10setToBogusEv(ptr noundef nonnull align 8 dereferenceable(64) %0)
          to label %_ZN6icu_7711ICU_Utility15makeBogusStringEv.exit unwind label %18

18:                                               ; preds = %14
  %19 = landingpad { ptr, i32 }
          cleanup
  br label %common.resume

20:                                               ; preds = %10
  %21 = load ptr, ptr %12, align 8, !tbaa !15
  %22 = getelementptr inbounds nuw i8, ptr %21, i64 16
  %23 = load ptr, ptr %22, align 8
  tail call void %23(ptr dead_on_unwind writable sret(%"class.icu_77::UnicodeString") align 8 %0, ptr noundef nonnull align 8 dereferenceable(300) %12, ptr noundef nonnull align 4 dereferenceable(4) %2)
  br label %_ZN6icu_7711ICU_Utility15makeBogusStringEv.exit

_ZN6icu_7711ICU_Utility15makeBogusStringEv.exit:  ; preds = %14, %6, %20
  ret void
}